; Function Attrs: nounwind uwtable
define range(i32 0, 2) i32 @Gia_ObjCheckTfi(ptr noundef %0, ptr noundef %1, ptr noundef %2) local_unnamed_addr #0 {
  %4 = tail call noalias dereferenceable_or_null(16) ptr @malloc(i64 noundef 16) #32
  %5 = getelementptr inbounds nuw i8, ptr %4, i64 4
  store i32 0, ptr %5, align 4, !tbaa !152
  store i32 100, ptr %4, align 8, !tbaa !154
  %6 = tail call noalias dereferenceable_or_null(800) ptr @malloc(i64 noundef 800) #32
  %7 = getelementptr inbounds nuw i8, ptr %4, i64 8
  store ptr %6, ptr %7, align 8, !tbaa !155
  %8 = tail call i32 @Gia_ObjCheckTfi_rec(ptr noundef %0, ptr noundef %1, ptr noundef %2, ptr noundef nonnull %4)
  %.val12 = load i32, ptr %5, align 4, !tbaa !152
  %9 = icmp sgt i32 %.val12, 0
  br i1 %9, label %.lr.ph, label %.critedge

.lr.ph:                                           ; preds = %3, %.lr.ph
  %indvars.iv = phi i64 [ %indvars.iv.next, %.lr.ph ], [ 0, %3 ]
  %.val11 = load ptr, ptr %7, align 8, !tbaa !155
  %10 = getelementptr inbounds nuw ptr, ptr %.val11, i64 %indvars.iv
  %11 = load ptr, ptr %10, align 8, !tbaa !156
  %12 = load i64, ptr %11, align 4
  %13 = and i64 %12, -1073741825
  store i64 %13, ptr %11, align 4
  %indvars.iv.next = add nuw nsw i64 %indvars.iv, 1
  %.val = load i32, ptr %5, align 4, !tbaa !152
  %14 = sext i32 %.val to i64
  %15 = icmp slt i64 %indvars.iv.next, %14
  br i1 %15, label %.lr.ph, label %.critedge, !llvm.loop !157

.critedge:                                        ; preds = %.lr.ph, %3
  %16 = load ptr, ptr %7, align 8, !tbaa !155
  %.not.i = icmp eq ptr %16, null
  br i1 %.not.i, label %Vec_PtrFree.exit, label %17

17:                                               ; preds = %.critedge
  tail call void @free(ptr noundef nonnull %16) #31
  br label %Vec_PtrFree.exit

Vec_PtrFree.exit:                                 ; preds = %.critedge, %17
  tail call void @free(ptr noundef nonnull %4) #31
  ret i32 %8
}